target datalayout = "e-m:e-p270:32:32-p271:32:32-p272:64:64-i64:64-i128:128-f80:128-n8:16:32:64-S128"
target triple = "x86_64-pc-linux-gnu"

%class.cmExportBuildFileGenerator = type { %class.cmExportFileGenerator.base, %"class.std::vector.14", ptr, %"class.std::vector.19", ptr, %"class.std::__cxx11::basic_string" }
%class.cmExportFileGenerator.base = type <{ ptr, %"class.std::__cxx11::basic_string", i8, [7 x i8], %"class.std::vector", %"class.std::__cxx11::basic_string", %"class.std::__cxx11::basic_string", %"class.std::__cxx11::basic_string", %"class.std::__cxx11::basic_string", i8, [7 x i8], %"class.std::set", %"class.std::vector", %"class.std::set.6", i32, i32, i32, i8 }>
%"class.std::set" = type { %"class.std::_Rb_tree" }
%"class.std::_Rb_tree" = type { %"struct.std::_Rb_tree<cmGeneratorTarget *, cmGeneratorTarget *, std::_Identity<cmGeneratorTarget *>, std::less<cmGeneratorTarget *>>::_Rb_tree_impl" }
%"struct.std::_Rb_tree<cmGeneratorTarget *, cmGeneratorTarget *, std::_Identity<cmGeneratorTarget *>, std::less<cmGeneratorTarget *>>::_Rb_tree_impl" = type { %"struct.std::_Rb_tree_key_compare", %"struct.std::_Rb_tree_header" }
%"struct.std::_Rb_tree_key_compare" = type { %"struct.std::less" }
%"struct.std::less" = type { i8 }
%"struct.std::_Rb_tree_header" = type { %"struct.std::_Rb_tree_node_base", i64 }
%"struct.std::_Rb_tree_node_base" = type { i32, ptr, ptr, ptr }
%"class.std::vector" = type { %"struct.std::_Vector_base" }
%"struct.std::_Vector_base" = type { %"struct.std::_Vector_base<std::__cxx11::basic_string<char>, std::allocator<std::__cxx11::basic_string<char>>>::_Vector_impl" }
%"struct.std::_Vector_base<std::__cxx11::basic_string<char>, std::allocator<std::__cxx11::basic_string<char>>>::_Vector_impl" = type { %"struct.std::_Vector_base<std::__cxx11::basic_string<char>, std::allocator<std::__cxx11::basic_string<char>>>::_Vector_impl_data" }
%"struct.std::_Vector_base<std::__cxx11::basic_string<char>, std::allocator<std::__cxx11::basic_string<char>>>::_Vector_impl_data" = type { ptr, ptr, ptr }
%"class.std::set.6" = type { %"class.std::_Rb_tree.7" }
%"class.std::_Rb_tree.7" = type { %"struct.std::_Rb_tree<const cmGeneratorTarget *, const cmGeneratorTarget *, std::_Identity<const cmGeneratorTarget *>, std::less<const cmGeneratorTarget *>>::_Rb_tree_impl" }
%"struct.std::_Rb_tree<const cmGeneratorTarget *, const cmGeneratorTarget *, std::_Identity<const cmGeneratorTarget *>, std::less<const cmGeneratorTarget *>>::_Rb_tree_impl" = type { %"struct.std::_Rb_tree_key_compare.11", %"struct.std::_Rb_tree_header" }
%"struct.std::_Rb_tree_key_compare.11" = type { %"struct.std::less.12" }
%"struct.std::less.12" = type { i8 }
%"class.std::vector.14" = type { %"struct.std::_Vector_base.15" }
%"struct.std::_Vector_base.15" = type { %"struct.std::_Vector_base<cmExportBuildFileGenerator::TargetExport, std::allocator<cmExportBuildFileGenerator::TargetExport>>::_Vector_impl" }
%"struct.std::_Vector_base<cmExportBuildFileGenerator::TargetExport, std::allocator<cmExportBuildFileGenerator::TargetExport>>::_Vector_impl" = type { %"struct.std::_Vector_base<cmExportBuildFileGenerator::TargetExport, std::allocator<cmExportBuildFileGenerator::TargetExport>>::_Vector_impl_data" }
%"struct.std::_Vector_base<cmExportBuildFileGenerator::TargetExport, std::allocator<cmExportBuildFileGenerator::TargetExport>>::_Vector_impl_data" = type { ptr, ptr, ptr }
%"class.std::vector.19" = type { %"struct.std::_Vector_base.20" }
%"struct.std::_Vector_base.20" = type { %"struct.std::_Vector_base<cmExportBuildFileGenerator::TargetExportPrivate, std::allocator<cmExportBuildFileGenerator::TargetExportPrivate>>::_Vector_impl" }
%"struct.std::_Vector_base<cmExportBuildFileGenerator::TargetExportPrivate, std::allocator<cmExportBuildFileGenerator::TargetExportPrivate>>::_Vector_impl" = type { %"struct.std::_Vector_base<cmExportBuildFileGenerator::TargetExportPrivate, std::allocator<cmExportBuildFileGenerator::TargetExportPrivate>>::_Vector_impl_data" }
%"struct.std::_Vector_base<cmExportBuildFileGenerator::TargetExportPrivate, std::allocator<cmExportBuildFileGenerator::TargetExportPrivate>>::_Vector_impl_data" = type { ptr, ptr, ptr }
%"class.std::__cxx11::basic_string" = type { %"struct.std::__cxx11::basic_string<char>::_Alloc_hider", i64, %union.anon }
%"struct.std::__cxx11::basic_string<char>::_Alloc_hider" = type { ptr }
%union.anon = type { i64, [8 x i8] }

; Function Attrs: mustprogress uwtable
define dso_local void @_ZN31cmExportBuildAndroidMKGeneratorC2Ev(ptr noundef nonnull align 8 dereferenceable(440) %0) unnamed_addr #4 align 2 {
  %2 = alloca ptr, align 8
  store ptr %0, ptr %2, align 8
  %3 = load ptr, ptr %2, align 8
  call void @_ZN26cmExportBuildFileGeneratorC2Ev(ptr noundef nonnull align 8 dereferenceable(440) %3)
  store ptr getelementptr inbounds ({ [26 x ptr] }, ptr @_ZTV31cmExportBuildAndroidMKGenerator, i32 0, i32 0, i32 2), ptr %3, align 8
  %4 = getelementptr inbounds %class.cmExportBuildFileGenerator, ptr %3, i32 0, i32 4
  store ptr null, ptr %4, align 8
  %5 = getelementptr inbounds %class.cmExportBuildFileGenerator, ptr %3, i32 0, i32 2
  store ptr null, ptr %5, align 8
  ret void
}