; Function Attrs: mustprogress uwtable
define dso_local void @_ZN31cmExportBuildAndroidMKGeneratorC2Ev(ptr noundef nonnull align 8 dereferenceable(440) %0) unnamed_addr #3 align 2 {
  tail call void @_ZN26cmExportBuildFileGeneratorC2Ev(ptr noundef nonnull align 8 dereferenceable(440) %0)
  store ptr getelementptr inbounds ({ [26 x ptr] }, ptr @_ZTV31cmExportBuildAndroidMKGenerator, i64 0, i32 0, i64 2), ptr %0, align 8
  %2 = getelementptr inbounds i8, ptr %0, i64 400
  store ptr null, ptr %2, align 8
  %3 = getelementptr inbounds i8, ptr %0, i64 368
  store ptr null, ptr %3, align 8
  ret void
}